target datalayout = "e-m:e-p270:32:32-p271:32:32-p272:64:64-i64:64-i128:128-f80:128-n8:16:32:64-S128"
target triple = "x86_64-pc-linux-gnu"

%struct._value_string_ext = type { ptr, i32, i32, ptr, ptr }
%struct.expert_field = type { i32, i32 }
%struct.hopcount_info_t = type { i8, ptr, i8 }
%struct._packet_info = type { ptr, ptr, i32, i32, %struct.nstime_t, %struct.nstime_t, %struct.nstime_t, i8, ptr, ptr, ptr, ptr, %struct._address, %struct._address, %struct._address, %struct._address, %struct._address, %struct._address, i32, ptr, i8, [3 x i8], %struct.anon, i32, i32, i32, i32, ptr, i8, ptr, ptr, i16, i16, i32, i32, i16, i32, i32, ptr, ptr, ptr, i8, i8, i16, i16, i16, i32, i16, i16, ptr, ptr, ptr, ptr, ptr, i32, i32 }
%struct.nstime_t = type { i64, i32 }
%struct._address = type { i32, i32, ptr, ptr }
%struct.anon = type { i8, [3 x i8] }

@msgtype_vals_ext = internal global %struct._value_string_ext { ptr @_try_val_to_str_ext_init, i32 0, i32 21, ptr @msgtype_vals, ptr @.str.465 }, align 8
@hf_dhcpv6_bulk_leasequery_size = internal global i32 0, align 4
@hf_dhcpv6_bulk_leasequery_msgtype = internal global i32 0, align 4
@hf_dhcpv6_bulk_leasequery_reserved = internal global i32 0, align 4
@hf_dhcpv6_bulk_leasequery_trans_id = internal global i32 0, align 4
@ett_dhcpv6_bulk_leasequery = internal global i32 0, align 4
@ett_dhcpv6_bulk_leasequery_options = internal global i32 0, align 4
@ei_dhcpv6_bulk_leasequery_bad_msg_type = internal global %struct.expert_field zeroinitializer, align 4
@proto_dhcpv6_bulk_leasequery = internal global i32 0, align 4
@.str.837 = private unnamed_addr constant [17 x i8] c"DHCPv6 BulkLease\00", align 1
@.str.838 = private unnamed_addr constant [54 x i8] c"Message Type %d not allowed by DHCPv6 Bulk Leasequery\00", align 1
@.str.839 = private unnamed_addr constant [24 x i8] c"%s, Transaction ID: %5u\00", align 1
@.str.840 = private unnamed_addr constant [8 x i8] c"Unknown\00", align 1
@.str.841 = private unnamed_addr constant [15 x i8] c"DHCPv6 Options\00", align 1

; Function Attrs: alwaysinline nounwind
define internal ptr @memset.inline(ptr %0, i32 %1, i64 %2) #5 {
  %4 = alloca ptr, align 8
  %5 = alloca i32, align 4
  %6 = alloca i64, align 8
  store ptr %0, ptr %4, align 8
  store i32 %1, ptr %5, align 4
  store i64 %2, ptr %6, align 8
  %7 = load ptr, ptr %4, align 8
  %8 = load i32, ptr %5, align 4
  %9 = load i64, ptr %6, align 8
  %10 = load ptr, ptr %4, align 8
  %11 = call i64 @llvm.objectsize.i64.p0(ptr %10, i1 false, i1 true, i1 true)
  %12 = call ptr @__memset_chk(ptr noundef %7, i32 noundef %8, i64 noundef %9, i64 noundef %11) #9
  ret ptr %12
}

; Function Attrs: nounwind null_pointer_is_valid sspstrong uwtable
define internal void @initialize_hopount_info(ptr noundef %0) #4 {
  %2 = alloca ptr, align 8
  store ptr %0, ptr %2, align 8
  %3 = load ptr, ptr %2, align 8
  %4 = call ptr @memset.inline(ptr noundef %3, i32 noundef 0, i64 noundef 24) #9
  ret void
}

; Function Attrs: null_pointer_is_valid sspstrong uwtable
define internal i32 @dissect_dhcpv6_bulk_leasequery_pdu(ptr noundef %0, ptr noundef %1, ptr noundef %2, ptr noundef %3) #0 {
  %5 = alloca ptr, align 8
  %6 = alloca ptr, align 8
  %7 = alloca ptr, align 8
  %8 = alloca ptr, align 8
  %9 = alloca ptr, align 8
  %10 = alloca ptr, align 8
  %11 = alloca ptr, align 8
  %12 = alloca i32, align 4
  %13 = alloca i32, align 4
  %14 = alloca i16, align 2
  %15 = alloca i16, align 2
  %16 = alloca i8, align 1
  %17 = alloca i8, align 1
  %18 = alloca %struct.hopcount_info_t, align 8
  store ptr %0, ptr %5, align 8
  store ptr %1, ptr %6, align 8
  store ptr %2, ptr %7, align 8
  store ptr %3, ptr %8, align 8
  call void @llvm.lifetime.start.p0(i64 8, ptr %9) #9
  call void @llvm.lifetime.start.p0(i64 8, ptr %10) #9
  call void @llvm.lifetime.start.p0(i64 8, ptr %11) #9
  call void @llvm.lifetime.start.p0(i64 4, ptr %12) #9
  store i32 0, ptr %12, align 4
  call void @llvm.lifetime.start.p0(i64 4, ptr %13) #9
  call void @llvm.lifetime.start.p0(i64 2, ptr %14) #9
  call void @llvm.lifetime.start.p0(i64 2, ptr %15) #9
  call void @llvm.lifetime.start.p0(i64 1, ptr %16) #9
  call void @llvm.lifetime.start.p0(i64 1, ptr %17) #9
  store i8 0, ptr %17, align 1
  call void @llvm.lifetime.start.p0(i64 24, ptr %18) #9
  call void @initialize_hopount_info(ptr noundef %18)
  %19 = load ptr, ptr %6, align 8
  %20 = getelementptr inbounds nuw %struct._packet_info, ptr %19, i32 0, i32 1
  %21 = load ptr, ptr %20, align 8
  call void @col_set_str(ptr noundef %21, i32 noundef 35, ptr noundef @.str.837)
  %22 = load ptr, ptr %6, align 8
  %23 = getelementptr inbounds nuw %struct._packet_info, ptr %22, i32 0, i32 1
  %24 = load ptr, ptr %23, align 8
  call void @col_clear(ptr noundef %24, i32 noundef 25)
  %25 = load ptr, ptr %7, align 8
  %26 = load i32, ptr @proto_dhcpv6_bulk_leasequery, align 4
  %27 = load ptr, ptr %5, align 8
  %28 = call ptr @proto_tree_add_item(ptr noundef %25, i32 noundef %26, ptr noundef %27, i32 noundef 0, i32 noundef -1, i32 noundef 0)
  store ptr %28, ptr %9, align 8
  %29 = load ptr, ptr %9, align 8
  %30 = load i32, ptr @ett_dhcpv6_bulk_leasequery, align 4
  %31 = call ptr @proto_item_add_subtree(ptr noundef %29, i32 noundef %30)
  store ptr %31, ptr %10, align 8
  %32 = load ptr, ptr %5, align 8
  %33 = load i32, ptr %12, align 4
  %34 = call zeroext i16 @tvb_get_ntohs(ptr noundef %32, i32 noundef %33)
  store i16 %34, ptr %14, align 2
  %35 = load ptr, ptr %10, align 8
  %36 = load i32, ptr @hf_dhcpv6_bulk_leasequery_size, align 4
  %37 = load ptr, ptr %5, align 8
  %38 = load i32, ptr %12, align 4
  %39 = call ptr @proto_tree_add_item(ptr noundef %35, i32 noundef %36, ptr noundef %37, i32 noundef %38, i32 noundef 2, i32 noundef 0)
  %40 = load i32, ptr %12, align 4
  %41 = add i32 %40, 2
  store i32 %41, ptr %12, align 4
  %42 = load ptr, ptr %5, align 8
  %43 = load i32, ptr %12, align 4
  %44 = call zeroext i8 @tvb_get_uint8(ptr noundef %42, i32 noundef %43)
  store i8 %44, ptr %16, align 1
  %45 = load ptr, ptr %10, align 8
  %46 = load i32, ptr @hf_dhcpv6_bulk_leasequery_msgtype, align 4
  %47 = load ptr, ptr %5, align 8
  %48 = load i32, ptr %12, align 4
  %49 = call ptr @proto_tree_add_item(ptr noundef %45, i32 noundef %46, ptr noundef %47, i32 noundef %48, i32 noundef 1, i32 noundef 0)
  store ptr %49, ptr %9, align 8
  %50 = load i8, ptr %16, align 1
  %51 = zext i8 %50 to i32
  %52 = icmp ne i32 %51, 14
  br i1 %52, label %53, label %71

53:                                               ; preds = %4
  %54 = load i8, ptr %16, align 1
  %55 = zext i8 %54 to i32
  %56 = icmp ne i32 %55, 15
  br i1 %56, label %57, label %71

57:                                               ; preds = %53
  %58 = load i8, ptr %16, align 1
  %59 = zext i8 %58 to i32
  %60 = icmp ne i32 %59, 16
  br i1 %60, label %61, label %71

61:                                               ; preds = %57
  %62 = load i8, ptr %16, align 1
  %63 = zext i8 %62 to i32
  %64 = icmp ne i32 %63, 17
  br i1 %64, label %65, label %71

65:                                               ; preds = %61
  %66 = load ptr, ptr %6, align 8
  %67 = load ptr, ptr %9, align 8
  %68 = load i8, ptr %16, align 1
  %69 = zext i8 %68 to i32
  %70 = call ptr (ptr, ptr, ptr, ptr, ...) @expert_add_info_format(ptr noundef %66, ptr noundef %67, ptr noundef @ei_dhcpv6_bulk_leasequery_bad_msg_type, ptr noundef @.str.838, i32 noundef %69)
  br label %71

71:                                               ; preds = %65, %61, %57, %53, %4
  %72 = load i32, ptr %12, align 4
  %73 = add i32 %72, 1
  store i32 %73, ptr %12, align 4
  %74 = load ptr, ptr %10, align 8
  %75 = load i32, ptr @hf_dhcpv6_bulk_leasequery_reserved, align 4
  %76 = load ptr, ptr %5, align 8
  %77 = load i32, ptr %12, align 4
  %78 = call ptr @proto_tree_add_item(ptr noundef %74, i32 noundef %75, ptr noundef %76, i32 noundef %77, i32 noundef 1, i32 noundef 0)
  %79 = load i32, ptr %12, align 4
  %80 = add i32 %79, 1
  store i32 %80, ptr %12, align 4
  %81 = load ptr, ptr %5, align 8
  %82 = load i32, ptr %12, align 4
  %83 = call zeroext i16 @tvb_get_ntohs(ptr noundef %81, i32 noundef %82)
  store i16 %83, ptr %15, align 2
  %84 = load ptr, ptr %10, align 8
  %85 = load i32, ptr @hf_dhcpv6_bulk_leasequery_trans_id, align 4
  %86 = load ptr, ptr %5, align 8
  %87 = load i32, ptr %12, align 4
  %88 = call ptr @proto_tree_add_item(ptr noundef %84, i32 noundef %85, ptr noundef %86, i32 noundef %87, i32 noundef 2, i32 noundef 0)
  %89 = load i32, ptr %12, align 4
  %90 = add i32 %89, 2
  store i32 %90, ptr %12, align 4
  %91 = load ptr, ptr %6, align 8
  %92 = getelementptr inbounds nuw %struct._packet_info, ptr %91, i32 0, i32 1
  %93 = load ptr, ptr %92, align 8
  %94 = load i8, ptr %16, align 1
  %95 = zext i8 %94 to i32
  %96 = call ptr @val_to_str_ext_const(i32 noundef %95, ptr noundef @msgtype_vals_ext, ptr noundef @.str.840)
  %97 = load i16, ptr %15, align 2
  %98 = zext i16 %97 to i32
  call void (ptr, i32, ptr, ...) @col_add_fstr(ptr noundef %93, i32 noundef 25, ptr noundef @.str.839, ptr noundef %96, i32 noundef %98)
  %99 = load ptr, ptr %10, align 8
  %100 = load ptr, ptr %5, align 8
  %101 = load i32, ptr %12, align 4
  %102 = load i32, ptr @ett_dhcpv6_bulk_leasequery_options, align 4
  %103 = call ptr @proto_tree_add_subtree(ptr noundef %99, ptr noundef %100, i32 noundef %101, i32 noundef -1, i32 noundef %102, ptr noundef null, ptr noundef @.str.841)
  store ptr %103, ptr %11, align 8
  %104 = load i16, ptr %14, align 2
  %105 = zext i16 %104 to i32
  %106 = add i32 %105, 2
  store i32 %106, ptr %13, align 4
  br label %107

107:                                              ; preds = %117, %71
  %108 = load i32, ptr %12, align 4
  %109 = load i32, ptr %13, align 4
  %110 = icmp slt i32 %108, %109
  br i1 %110, label %111, label %115

111:                                              ; preds = %107
  %112 = load i8, ptr %17, align 1, !range !6, !noundef !7
  %113 = trunc i8 %112 to i1
  %114 = xor i1 %113, true
  br label %115

115:                                              ; preds = %111, %107
  %116 = phi i1 [ false, %107 ], [ %114, %111 ]
  br i1 %116, label %117, label %128

117:                                              ; preds = %115
  %118 = load ptr, ptr %5, align 8
  %119 = load ptr, ptr %6, align 8
  %120 = load ptr, ptr %11, align 8
  %121 = load i32, ptr %12, align 4
  %122 = load i32, ptr %13, align 4
  %123 = load i32, ptr @proto_dhcpv6_bulk_leasequery, align 4
  %124 = load i8, ptr %16, align 1
  %125 = call i32 @dhcpv6_option(ptr noundef %118, ptr noundef %119, ptr noundef %120, i32 noundef %121, i32 noundef %122, ptr noundef %17, i32 noundef %123, ptr noundef byval(%struct.hopcount_info_t) align 8 %18, i8 noundef zeroext %124)
  %126 = load i32, ptr %12, align 4
  %127 = add i32 %126, %125
  store i32 %127, ptr %12, align 4
  br label %107, !llvm.loop !16

128:                                              ; preds = %115
  %129 = load ptr, ptr %5, align 8
  %130 = call i32 @tvb_reported_length(ptr noundef %129)
  call void @llvm.lifetime.end.p0(i64 24, ptr %18) #9
  call void @llvm.lifetime.end.p0(i64 1, ptr %17) #9
  call void @llvm.lifetime.end.p0(i64 1, ptr %16) #9
  call void @llvm.lifetime.end.p0(i64 2, ptr %15) #9
  call void @llvm.lifetime.end.p0(i64 2, ptr %14) #9
  call void @llvm.lifetime.end.p0(i64 4, ptr %13) #9
  call void @llvm.lifetime.end.p0(i64 4, ptr %12) #9
  call void @llvm.lifetime.end.p0(i64 8, ptr %11) #9
  call void @llvm.lifetime.end.p0(i64 8, ptr %10) #9
  call void @llvm.lifetime.end.p0(i64 8, ptr %9) #9
  ret i32 %130
}