; Function Attrs: null_pointer_is_valid sspstrong uwtable
define internal i32 @dissect_dhcpv6_bulk_leasequery_pdu(ptr noundef %0, ptr noundef %1, ptr noundef %2, ptr readnone captures(none) %3) #0 {
  %5 = alloca i8, align 1
  %6 = alloca %struct.hopcount_info_t, align 8
  call void @llvm.lifetime.start.p0(i64 1, ptr nonnull %5) #7
  store i8 0, ptr %5, align 1
  call void @llvm.lifetime.start.p0(i64 24, ptr nonnull %6) #7
  call void @llvm.memset.p0.i64(ptr noundef nonnull align 8 dereferenceable(24) %6, i8 noundef 0, i64 noundef 24, i1 noundef false) #7
  %7 = getelementptr inbounds nuw i8, ptr %1, i64 8
  %8 = load ptr, ptr %7, align 8
  tail call void @col_set_str(ptr noundef %8, i32 noundef 35, ptr noundef nonnull @.str.837)
  %9 = load ptr, ptr %7, align 8
  tail call void @col_clear(ptr noundef %9, i32 noundef 25)
  %10 = load i32, ptr @proto_dhcpv6_bulk_leasequery, align 4
  %11 = tail call ptr @proto_tree_add_item(ptr noundef %2, i32 noundef %10, ptr noundef %0, i32 noundef 0, i32 noundef -1, i32 noundef 0)
  %12 = load i32, ptr @ett_dhcpv6_bulk_leasequery, align 4
  %13 = tail call ptr @proto_item_add_subtree(ptr noundef %11, i32 noundef %12)
  %14 = tail call zeroext i16 @tvb_get_ntohs(ptr noundef %0, i32 noundef 0)
  %15 = load i32, ptr @hf_dhcpv6_bulk_leasequery_size, align 4
  %16 = tail call ptr @proto_tree_add_item(ptr noundef %13, i32 noundef %15, ptr noundef %0, i32 noundef 0, i32 noundef 2, i32 noundef 0)
  %17 = tail call zeroext i8 @tvb_get_uint8(ptr noundef %0, i32 noundef 2)
  %18 = load i32, ptr @hf_dhcpv6_bulk_leasequery_msgtype, align 4
  %19 = tail call ptr @proto_tree_add_item(ptr noundef %13, i32 noundef %18, ptr noundef %0, i32 noundef 2, i32 noundef 1, i32 noundef 0)
  %20 = zext i8 %17 to i32
  %21 = add i8 %17, -18
  %or.cond8 = icmp ult i8 %21, -4
  br i1 %or.cond8, label %22, label %24

22:                                               ; preds = %4
  %23 = tail call ptr (ptr, ptr, ptr, ptr, ...) @expert_add_info_format(ptr noundef %1, ptr noundef %19, ptr noundef nonnull @ei_dhcpv6_bulk_leasequery_bad_msg_type, ptr noundef nonnull @.str.838, i32 noundef %20)
  br label %24

24:                                               ; preds = %22, %4
  %25 = load i32, ptr @hf_dhcpv6_bulk_leasequery_reserved, align 4
  %26 = tail call ptr @proto_tree_add_item(ptr noundef %13, i32 noundef %25, ptr noundef %0, i32 noundef 3, i32 noundef 1, i32 noundef 0)
  %27 = tail call zeroext i16 @tvb_get_ntohs(ptr noundef %0, i32 noundef 4)
  %28 = load i32, ptr @hf_dhcpv6_bulk_leasequery_trans_id, align 4
  %29 = tail call ptr @proto_tree_add_item(ptr noundef %13, i32 noundef %28, ptr noundef %0, i32 noundef 4, i32 noundef 2, i32 noundef 0)
  %30 = load ptr, ptr %7, align 8
  %31 = tail call ptr @val_to_str_ext_const(i32 noundef %20, ptr noundef nonnull @msgtype_vals_ext, ptr noundef nonnull @.str.840)
  %32 = zext i16 %27 to i32
  tail call void (ptr, i32, ptr, ...) @col_add_fstr(ptr noundef %30, i32 noundef 25, ptr noundef nonnull @.str.839, ptr noundef %31, i32 noundef %32)
  %33 = load i32, ptr @ett_dhcpv6_bulk_leasequery_options, align 4
  %34 = tail call ptr @proto_tree_add_subtree(ptr noundef %13, ptr noundef %0, i32 noundef 6, i32 noundef -1, i32 noundef %33, ptr noundef null, ptr noundef nonnull @.str.841)
  %35 = zext i16 %14 to i32
  %36 = add nuw nsw i32 %35, 2
  %37 = icmp ult i16 %14, 5
  br i1 %37, label %._crit_edge, label %.lr.ph

.lr.ph:                                           ; preds = %24, %.lr.ph
  %.062 = phi i32 [ %40, %.lr.ph ], [ 6, %24 ]
  %38 = load i32, ptr @proto_dhcpv6_bulk_leasequery, align 4
  %39 = call fastcc i32 @dhcpv6_option(ptr noundef %0, ptr noundef %1, ptr noundef %34, i32 noundef %.062, i32 noundef %36, ptr noundef nonnull %5, i32 noundef %38, ptr noundef nonnull byval(%struct.hopcount_info_t) align 8 %6, i8 noundef zeroext %17)
  %40 = add nuw nsw i32 %39, %.062
  %41 = icmp samesign uge i32 %40, %36
  %42 = load i8, ptr %5, align 1, !range !6
  %43 = trunc nuw i8 %42 to i1
  %.not60 = select i1 %41, i1 true, i1 %43
  br i1 %.not60, label %._crit_edge, label %.lr.ph, !llvm.loop !17

._crit_edge:                                      ; preds = %.lr.ph, %24
  %44 = call i32 @tvb_reported_length(ptr noundef %0)
  call void @llvm.lifetime.end.p0(i64 24, ptr nonnull %6) #7
  call void @llvm.lifetime.end.p0(i64 1, ptr nonnull %5) #7
  ret i32 %44
}